; Function Attrs: mustprogress nofree norecurse nosync nounwind memory(readwrite, inaccessiblemem: none) uwtable
define hidden void @_ZN13RetTableEntry9add_deltaEii(ptr nocapture noundef nonnull align 8 dereferenceable(24) %0, i32 noundef %1, i32 noundef %2) local_unnamed_addr #1 align 2 {
  %4 = load i32, ptr %0, align 8
  %5 = icmp sgt i32 %4, %1
  br i1 %5, label %6, label %8

6:                                                ; preds = %3
  %7 = add nsw i32 %4, %2
  store i32 %7, ptr %0, align 8
  br label %8

8:                                                ; preds = %6, %3
  %9 = getelementptr inbounds i8, ptr %0, i64 8
  %10 = load ptr, ptr %9, align 8
  %11 = load i32, ptr %10, align 4
  %12 = icmp sgt i32 %11, 0
  br i1 %12, label %.lr.ph, label %._crit_edge

.lr.ph:                                           ; preds = %8, %22
  %13 = phi i32 [ %23, %22 ], [ %11, %8 ]
  %14 = phi ptr [ %24, %22 ], [ %10, %8 ]
  %indvars.iv = phi i64 [ %indvars.iv.next, %22 ], [ 0, %8 ]
  %15 = getelementptr inbounds i8, ptr %14, i64 8
  %16 = load ptr, ptr %15, align 8
  %17 = getelementptr inbounds i32, ptr %16, i64 %indvars.iv
  %18 = load i32, ptr %17, align 4
  %19 = icmp sgt i32 %18, %1
  br i1 %19, label %20, label %22

20:                                               ; preds = %.lr.ph
  %21 = add nsw i32 %18, %2
  store i32 %21, ptr %17, align 4
  %.pre = load ptr, ptr %9, align 8
  %.pre14 = load i32, ptr %.pre, align 4
  br label %22

22:                                               ; preds = %.lr.ph, %20
  %23 = phi i32 [ %13, %.lr.ph ], [ %.pre14, %20 ]
  %24 = phi ptr [ %14, %.lr.ph ], [ %.pre, %20 ]
  %indvars.iv.next = add nuw nsw i64 %indvars.iv, 1
  %25 = sext i32 %23 to i64
  %26 = icmp slt i64 %indvars.iv.next, %25
  br i1 %26, label %.lr.ph, label %._crit_edge, !llvm.loop !6

._crit_edge:                                      ; preds = %22, %8
  ret void
}